; Function Attrs: nofree norecurse nosync nounwind memory(readwrite, inaccessiblemem: none) uwtable
define void @Kit_SopDivisorZeroKernel_rec(ptr noundef captures(none) %0, i32 noundef %1) local_unnamed_addr #0 {
  %3 = getelementptr i8, ptr %0, i64 4
  %4 = icmp sgt i32 %1, 0
  br i1 %4, label %.preheader.lr.ph.i.lr.ph, label %Kit_SopWorstLiteral.exit.thread

.preheader.lr.ph.i.lr.ph:                         ; preds = %2
  %5 = getelementptr i8, ptr %0, i64 8
  %.val.i.pre = load i32, ptr %3, align 4, !tbaa !3
  %6 = icmp sgt i32 %.val.i.pre, 0
  br i1 %6, label %.preheader.lr.ph.split.us.i.preheader, label %Kit_SopWorstLiteral.exit.thread

.preheader.lr.ph.split.us.i.preheader:            ; preds = %.preheader.lr.ph.i.lr.ph
  %.val32.us.i = load ptr, ptr %5, align 8, !tbaa !12
  br label %.preheader.lr.ph.split.us.i

.preheader.lr.ph.split.us.i:                      ; preds = %.preheader.lr.ph.split.us.i.preheader, %Kit_SopMakeCubeFree.exit
  %.val17.i26 = phi i32 [ %.val.i19, %Kit_SopMakeCubeFree.exit ], [ %.val.i.pre, %.preheader.lr.ph.split.us.i.preheader ]
  %wide.trip.count.i = zext nneg i32 %.val17.i26 to i64
  br label %.preheader.us.i

.preheader.us.i:                                  ; preds = %.critedge.us.i, %.preheader.lr.ph.split.us.i
  %.02439.us.i = phi i32 [ 1000000, %.preheader.lr.ph.split.us.i ], [ %.125.us.i, %.critedge.us.i ]
  %.02638.us.i = phi i32 [ -1, %.preheader.lr.ph.split.us.i ], [ %.127.us.i, %.critedge.us.i ]
  %.02937.us.i = phi i32 [ 0, %.preheader.lr.ph.split.us.i ], [ %15, %.critedge.us.i ]
  br label %7

7:                                                ; preds = %10, %.preheader.us.i
  %indvars.iv.i = phi i64 [ 0, %.preheader.us.i ], [ %indvars.iv.next.i, %10 ]
  %.02334.us.i = phi i32 [ 0, %.preheader.us.i ], [ %spec.select.us.i, %10 ]
  %8 = getelementptr inbounds nuw i32, ptr %.val32.us.i, i64 %indvars.iv.i
  %9 = load i32, ptr %8, align 4, !tbaa !15
  %.not.us.i = icmp eq i32 %9, 0
  br i1 %.not.us.i, label %.critedge.us.i, label %10

10:                                               ; preds = %7
  %11 = lshr i32 %9, %.02937.us.i
  %12 = and i32 %11, 1
  %spec.select.us.i = add nuw nsw i32 %12, %.02334.us.i
  %indvars.iv.next.i = add nuw nsw i64 %indvars.iv.i, 1
  %exitcond.not.i = icmp eq i64 %indvars.iv.next.i, %wide.trip.count.i
  br i1 %exitcond.not.i, label %.critedge.us.i, label %7, !llvm.loop !33

.critedge.us.i:                                   ; preds = %10, %7
  %.023.lcssa.us.i = phi i32 [ %spec.select.us.i, %10 ], [ %.02334.us.i, %7 ]
  %13 = icmp samesign ugt i32 %.023.lcssa.us.i, 1
  %14 = icmp sgt i32 %.02439.us.i, %.023.lcssa.us.i
  %or.cond.us.i = select i1 %13, i1 %14, i1 false
  %.127.us.i = select i1 %or.cond.us.i, i32 %.02937.us.i, i32 %.02638.us.i
  %.125.us.i = select i1 %or.cond.us.i, i32 %.023.lcssa.us.i, i32 %.02439.us.i
  %15 = add nuw nsw i32 %.02937.us.i, 1
  %exitcond45.not.i = icmp eq i32 %15, %1
  br i1 %exitcond45.not.i, label %._crit_edge.loopexit.i, label %.preheader.us.i, !llvm.loop !34

._crit_edge.loopexit.i:                           ; preds = %.critedge.us.i
  %16 = icmp sgt i32 %.125.us.i, 999999
  %17 = icmp eq i32 %.127.us.i, -1
  %or.cond = select i1 %16, i1 true, i1 %17
  br i1 %or.cond, label %Kit_SopWorstLiteral.exit.thread, label %.lr.ph.i

.lr.ph.i:                                         ; preds = %._crit_edge.loopexit.i
  %18 = shl nuw i32 1, %.127.us.i
  %19 = xor i32 %18, -1
  br label %20

20:                                               ; preds = %30, %.lr.ph.i
  %.val23.i = phi i32 [ %.val17.i26, %.lr.ph.i ], [ %.val.i8, %30 ]
  %indvars.iv.i7 = phi i64 [ 0, %.lr.ph.i ], [ %indvars.iv.next.i9, %30 ]
  %.019.i = phi i32 [ 0, %.lr.ph.i ], [ %.1.i, %30 ]
  %21 = getelementptr inbounds nuw i32, ptr %.val32.us.i, i64 %indvars.iv.i7
  %22 = load i32, ptr %21, align 4, !tbaa !15
  %.not.i = icmp eq i32 %22, 0
  br i1 %.not.i, label %Kit_SopDivideByLiteralQuo.exit, label %23

23:                                               ; preds = %20
  %24 = and i32 %22, %18
  %.not14.i = icmp eq i32 %24, 0
  br i1 %.not14.i, label %30, label %25

25:                                               ; preds = %23
  %26 = and i32 %22, %19
  %27 = add nsw i32 %.019.i, 1
  %28 = sext i32 %.019.i to i64
  %29 = getelementptr inbounds i32, ptr %.val32.us.i, i64 %28
  store i32 %26, ptr %29, align 4, !tbaa !15
  %.val.pre.i = load i32, ptr %3, align 4, !tbaa !3
  br label %30

30:                                               ; preds = %25, %23
  %.val.i8 = phi i32 [ %.val.pre.i, %25 ], [ %.val23.i, %23 ]
  %.1.i = phi i32 [ %27, %25 ], [ %.019.i, %23 ]
  %indvars.iv.next.i9 = add nuw nsw i64 %indvars.iv.i7, 1
  %31 = sext i32 %.val.i8 to i64
  %32 = icmp slt i64 %indvars.iv.next.i9, %31
  br i1 %32, label %20, label %Kit_SopDivideByLiteralQuo.exit, !llvm.loop !20

Kit_SopDivideByLiteralQuo.exit:                   ; preds = %20, %30
  %.0.lcssa.i = phi i32 [ %.1.i, %30 ], [ %.019.i, %20 ]
  store i32 %.0.lcssa.i, ptr %3, align 4, !tbaa !3
  %33 = icmp sgt i32 %.0.lcssa.i, 0
  br i1 %33, label %.lr.ph.i.i, label %Kit_SopMakeCubeFree.exit

.lr.ph.i.i:                                       ; preds = %Kit_SopDivideByLiteralQuo.exit
  %wide.trip.count.i.i = zext nneg i32 %.0.lcssa.i to i64
  br label %34

34:                                               ; preds = %37, %.lr.ph.i.i
  %indvars.iv.i.i = phi i64 [ 0, %.lr.ph.i.i ], [ %indvars.iv.next.i.i, %37 ]
  %.0710.i.i = phi i32 [ -1, %.lr.ph.i.i ], [ %38, %37 ]
  %35 = getelementptr inbounds nuw i32, ptr %.val32.us.i, i64 %indvars.iv.i.i
  %36 = load i32, ptr %35, align 4, !tbaa !15
  %.not.i.i = icmp eq i32 %36, 0
  br i1 %.not.i.i, label %Kit_SopCommonCube.exit.i, label %37

37:                                               ; preds = %34
  %38 = and i32 %36, %.0710.i.i
  %indvars.iv.next.i.i = add nuw nsw i64 %indvars.iv.i.i, 1
  %exitcond.not.i.i = icmp eq i64 %indvars.iv.next.i.i, %wide.trip.count.i.i
  br i1 %exitcond.not.i.i, label %Kit_SopCommonCube.exit.i, label %34, !llvm.loop !29

Kit_SopCommonCube.exit.i:                         ; preds = %37, %34
  %.07.lcssa.i.i = phi i32 [ %38, %37 ], [ %.0710.i.i, %34 ]
  %39 = icmp eq i32 %.07.lcssa.i.i, 0
  br i1 %39, label %Kit_SopMakeCubeFree.exit, label %.lr.ph.i10

.lr.ph.i10:                                       ; preds = %Kit_SopCommonCube.exit.i
  %40 = xor i32 %.07.lcssa.i.i, -1
  %41 = load i32, ptr %.val32.us.i, align 4, !tbaa !15
  %.not.i1222 = icmp eq i32 %41, 0
  br i1 %.not.i1222, label %Kit_SopMakeCubeFree.exit, label %.lr.ph

42:                                               ; preds = %.lr.ph
  %43 = getelementptr inbounds nuw i32, ptr %.val32.us.i, i64 %indvars.iv.next.i13
  %44 = load i32, ptr %43, align 4, !tbaa !15
  %.not.i12 = icmp eq i32 %44, 0
  br i1 %.not.i12, label %Kit_SopMakeCubeFree.exit, label %.lr.ph, !llvm.loop !30

.lr.ph:                                           ; preds = %.lr.ph.i10, %42
  %45 = phi i32 [ %44, %42 ], [ %41, %.lr.ph.i10 ]
  %indvars.iv.i1123 = phi i64 [ %indvars.iv.next.i13, %42 ], [ 0, %.lr.ph.i10 ]
  %46 = getelementptr inbounds nuw i32, ptr %.val32.us.i, i64 %indvars.iv.i1123
  %47 = and i32 %45, %40
  store i32 %47, ptr %46, align 4, !tbaa !15
  %indvars.iv.next.i13 = add nuw nsw i64 %indvars.iv.i1123, 1
  %.val.i14 = load i32, ptr %3, align 4, !tbaa !3
  %48 = sext i32 %.val.i14 to i64
  %49 = icmp slt i64 %indvars.iv.next.i13, %48
  br i1 %49, label %42, label %Kit_SopMakeCubeFree.exit, !llvm.loop !30

Kit_SopMakeCubeFree.exit:                         ; preds = %.lr.ph, %42, %.lr.ph.i10, %Kit_SopDivideByLiteralQuo.exit, %Kit_SopCommonCube.exit.i
  %.val.i19 = phi i32 [ %.0.lcssa.i, %Kit_SopDivideByLiteralQuo.exit ], [ %.0.lcssa.i, %Kit_SopCommonCube.exit.i ], [ %.0.lcssa.i, %.lr.ph.i10 ], [ %.val.i14, %42 ], [ %.val.i14, %.lr.ph ]
  %50 = icmp sgt i32 %.val.i19, 0
  br i1 %50, label %.preheader.lr.ph.split.us.i, label %Kit_SopWorstLiteral.exit.thread

Kit_SopWorstLiteral.exit.thread:                  ; preds = %Kit_SopMakeCubeFree.exit, %._crit_edge.loopexit.i, %.preheader.lr.ph.i.lr.ph, %2
  ret void
}